(dp1
S'<d>:compound:prt'
p2
I0
sS'<d>:nmod:poss'
p3
I1
sS'<d>:csubj'
p4
I2
sS'<d>:advcl'
p5
I3
sS'<d>:aux'
p6
I36
sS'<d>:<root>'
p7
I4
sS'<d>:ccomp'
p8
I5
sS'<d>:parataxis'
p9
I6
sS'<d>:case'
p10
I10
sS'<d>:neg'
p11
I9
sS'<d>:cc'
p12
I8
sS'<d>:punct'
p13
I11
sS'<d>:iobj'
p14
I12
sS'<d>:amod'
p15
I13
sS'<d>:<null>'
p16
I20
sS'<d>:advmod'
p17
I16
sS'<d>:det'
p18
I17
sS'<d>:nmod:tmod'
p19
I18
sS'<d>:dep'
p20
I19
sS'<d>:cop'
p21
I15
sS'<d>:root'
p22
I21
sS'<d>:mwe'
p23
I22
sS'<d>:<unk>'
p24
I23
sS'<d>:appos'
p25
I38
sS'<d>:expl'
p26
I25
sS'<d>:auxpass'
p27
I26
sS'<d>:xcomp'
p28
I29
sS'<d>:mark'
p29
I27
sS'<d>:acl'
p30
I28
sS'<d>:nmod:npmod'
p31
I14
sS'<d>:nsubjpass'
p32
I30
sS'<d>:det:predet'
p33
I7
sS'<d>:conj'
p34
I34
sS'<d>:discourse'
p35
I33
sS'<d>:acl:relcl'
p36
I35
sS'<d>:compound'
p37
I32
sS'<d>:dobj'
p38
I31
sS'<d>:nmod'
p39
I37
sS'<d>:nummod'
p40
I24
sS'<d>:csubjpass'
p41
I39
sS'<d>:nsubj'
p42
I40
sS'<d>:cc:preconj'
p43
I41
s.