(dp1
S'<p>:VBZ'
p2
I1
sS'<p>:WRB'
p3
I2
sS'<p>:RB'
p4
I3
sS'<p>:``'
p5
I4
sS'<p>:VBP'
p6
I5
sS'<p>:CC'
p7
I6
sS'<p>:-LRB-'
p8
I7
sS'<p>:RP'
p9
I8
sS'<p>:VBN'
p10
I9
sS'<p>:CD'
p11
I10
sS'<p>:WP$'
p12
I11
sS'<p>:MD'
p13
I12
sS'<p>:IN'
p14
I19
sS'<p>:VBG'
p15
I14
sS'<p>:EX'
p16
I20
sS'<p>:VBD'
p17
I16
sS'<p>:NNS'
p18
I17
sS'<p>:NNP'
p19
I18
sS'<p>:WP'
p20
I13
sS'<p>:NNPS'
p21
I21
sS'<p>:UH'
p22
I22
sS'<p>:<null>'
p23
I23
sS"<p>:''"
p24
I24
sS'<p>:POS'
p25
I25
sS'<p>:-RRB-'
p26
I26
sS'<p>:DT'
p27
I27
sS'<p>:RBS'
p28
I28
sS'<p>:RBR'
p29
I29
sS'<p>:NN'
p30
I30
sS'<p>:FW'
p31
I31
sS'<p>:WDT'
p32
I32
sS'<p>:LS'
p33
I33
sS'<p>:SYM'
p34
I34
sS'<p>:#'
p35
I0
sS'<p>:PDT'
p36
I36
sS'<p>:$'
p37
I37
sS'<p>:JJ'
p38
I38
sS'<p>:PRP$'
p39
I35
sS'<p>:PRP'
p40
I15
sS'<p>:,'
p41
I39
sS'<p>:.'
p42
I40
sS'<p>:VB'
p43
I41
sS'<p>:JJS'
p44
I42
sS'<p>:JJR'
p45
I43
sS'<p>:<root>'
p46
I44
sS'<p>:<unk>'
p47
I45
sS'<p>:TO'
p48
I46
sS'<p>::'
p49
I47
s.